target datalayout = "e-m:e-p270:32:32-p271:32:32-p272:64:64-i64:64-i128:128-f80:128-n8:16:32:64-S128"
target triple = "x86_64-pc-linux-gnu"

%"struct.duckdb_zstd::ZSTD_customMem" = type { ptr, ptr, ptr }
%"struct.duckdb_zstd::ZSTD_frameParameters" = type { i32, i32, i32 }
%"struct.duckdb_zstd::ZSTD_compressionParameters" = type { i32, i32, i32, i32, i32, i32, i32 }
%"struct.duckdb_zstd::ZSTD_CCtx_s" = type { i32, i32, i32, %"struct.duckdb_zstd::ZSTD_CCtx_params_s", %"struct.duckdb_zstd::ZSTD_CCtx_params_s", %"struct.duckdb_zstd::ZSTD_CCtx_params_s", i32, i64, %"struct.duckdb_zstd::ZSTD_cwksp", i64, i64, i64, i64, %"struct.duckdb_zstd::XXH64_state_s", %"struct.duckdb_zstd::ZSTD_customMem", ptr, i64, %"struct.duckdb_zstd::SeqCollector", i32, i32, %"struct.duckdb_zstd::seqStore_t", %"struct.duckdb_zstd::ldmState_t", ptr, i64, %"struct.duckdb_zstd::rawSeqStore_t", %"struct.duckdb_zstd::ZSTD_blockState_t", ptr, i32, ptr, i64, i64, i64, i64, ptr, i64, i64, i64, i32, i32, %"struct.duckdb_zstd::ZSTD_inBuffer_s", i64, i64, %"struct.duckdb_zstd::ZSTD_localDict", ptr, %"struct.duckdb_zstd::ZSTD_prefixDict_s", i64, %"struct.duckdb_zstd::ZSTD_blockSplitCtx", ptr, i64 }
%"struct.duckdb_zstd::ZSTD_CCtx_params_s" = type { i32, %"struct.duckdb_zstd::ZSTD_compressionParameters", %"struct.duckdb_zstd::ZSTD_frameParameters", i32, i32, i64, i32, i32, i32, i32, i64, i32, i32, %"struct.duckdb_zstd::ldmParams_t", i32, i32, i32, i32, i32, i32, i32, i32, %"struct.duckdb_zstd::ZSTD_customMem", i32, i32, ptr, ptr, i64, i32 }
%"struct.duckdb_zstd::ldmParams_t" = type { i32, i32, i32, i32, i32, i32 }
%"struct.duckdb_zstd::ZSTD_cwksp" = type { ptr, ptr, ptr, ptr, ptr, ptr, ptr, i8, i32, i32, i32 }
%"struct.duckdb_zstd::XXH64_state_s" = type { i64, i64, i64, i64, i64, [4 x i64], i32, [2 x i32] }
%"struct.duckdb_zstd::SeqCollector" = type { i32, ptr, i64, i64 }
%"struct.duckdb_zstd::seqStore_t" = type { ptr, ptr, ptr, ptr, ptr, ptr, ptr, i64, i64, i32, i32 }
%"struct.duckdb_zstd::ldmState_t" = type { %"struct.duckdb_zstd::ZSTD_window_t", ptr, i32, ptr, [64 x i64], [64 x %"struct.duckdb_zstd::ldmMatchCandidate_t"] }
%"struct.duckdb_zstd::ZSTD_window_t" = type { ptr, ptr, ptr, i32, i32, i32 }
%"struct.duckdb_zstd::ldmMatchCandidate_t" = type { ptr, i32, i32, ptr }
%"struct.duckdb_zstd::rawSeqStore_t" = type { ptr, i64, i64, i64, i64 }
%"struct.duckdb_zstd::ZSTD_blockState_t" = type { ptr, ptr, %"struct.duckdb_zstd::ZSTD_matchState_t" }
%"struct.duckdb_zstd::ZSTD_matchState_t" = type { %"struct.duckdb_zstd::ZSTD_window_t", i32, i32, i32, i32, ptr, [8 x i32], i64, i32, ptr, ptr, ptr, i32, i32, %"struct.duckdb_zstd::optState_t", ptr, %"struct.duckdb_zstd::ZSTD_compressionParameters", ptr, i32, i32 }
%"struct.duckdb_zstd::optState_t" = type { ptr, ptr, ptr, ptr, ptr, ptr, i32, i32, i32, i32, i32, i32, i32, i32, i32, ptr, i32 }
%"struct.duckdb_zstd::ZSTD_inBuffer_s" = type { ptr, i64, i64 }
%"struct.duckdb_zstd::ZSTD_localDict" = type { ptr, ptr, i64, i32, ptr }
%"struct.duckdb_zstd::ZSTD_prefixDict_s" = type { ptr, i64, i32 }
%"struct.duckdb_zstd::ZSTD_blockSplitCtx" = type { %"struct.duckdb_zstd::seqStore_t", %"struct.duckdb_zstd::seqStore_t", %"struct.duckdb_zstd::seqStore_t", %"struct.duckdb_zstd::seqStore_t", %"struct.duckdb_zstd::seqStore_t", [196 x i32], %"struct.duckdb_zstd::ZSTD_entropyCTablesMetadata_t" }
%"struct.duckdb_zstd::ZSTD_entropyCTablesMetadata_t" = type { %"struct.duckdb_zstd::ZSTD_hufCTablesMetadata_t", %"struct.duckdb_zstd::ZSTD_fseCTablesMetadata_t" }
%"struct.duckdb_zstd::ZSTD_hufCTablesMetadata_t" = type { i32, [128 x i8], i64 }
%"struct.duckdb_zstd::ZSTD_fseCTablesMetadata_t" = type { i32, i32, i32, [133 x i8], i64, i64 }

; Function Attrs: mustprogress uwtable
define noundef i64 @_ZN11duckdb_zstd28ZSTD_CCtx_refPrefix_advancedEPNS_11ZSTD_CCtx_sEPKvmNS_22ZSTD_dictContentType_eE(ptr noundef %0, ptr noundef %1, i64 noundef %2, i32 noundef %3) #2 {
  %5 = alloca i64, align 8
  %6 = alloca ptr, align 8
  %7 = alloca ptr, align 8
  %8 = alloca i64, align 8
  %9 = alloca i32, align 4
  store ptr %0, ptr %6, align 8, !tbaa !13
  store ptr %1, ptr %7, align 8, !tbaa !8
  store i64 %2, ptr %8, align 8, !tbaa !3
  store i32 %3, ptr %9, align 4, !tbaa !91
  br label %10

10:                                               ; preds = %4
  %11 = load ptr, ptr %6, align 8, !tbaa !13
  %12 = getelementptr inbounds nuw %"struct.duckdb_zstd::ZSTD_CCtx_s", ptr %11, i32 0, i32 37
  %13 = load i32, ptr %12, align 8, !tbaa !122
  %14 = icmp ne i32 %13, 0
  br i1 %14, label %15, label %24

15:                                               ; preds = %10
  br label %16

16:                                               ; preds = %15
  br label %17

17:                                               ; preds = %16
  br label %18

18:                                               ; preds = %17
  br label %19

19:                                               ; preds = %18
  br label %20

20:                                               ; preds = %19
  br label %21

21:                                               ; preds = %20
  br label %22

22:                                               ; preds = %21
  br label %23

23:                                               ; preds = %22
  store i64 -60, ptr %5, align 8
  br label %46

24:                                               ; preds = %10
  br label %25

25:                                               ; preds = %24
  %26 = load ptr, ptr %6, align 8, !tbaa !13
  call void @_ZN11duckdb_zstdL18ZSTD_clearAllDictsEPNS_11ZSTD_CCtx_sE(ptr noundef %26)
  %27 = load ptr, ptr %7, align 8, !tbaa !8
  %28 = icmp ne ptr %27, null
  br i1 %28, label %29, label %45

29:                                               ; preds = %25
  %30 = load i64, ptr %8, align 8, !tbaa !3
  %31 = icmp ugt i64 %30, 0
  br i1 %31, label %32, label %45

32:                                               ; preds = %29
  %33 = load ptr, ptr %7, align 8, !tbaa !8
  %34 = load ptr, ptr %6, align 8, !tbaa !13
  %35 = getelementptr inbounds nuw %"struct.duckdb_zstd::ZSTD_CCtx_s", ptr %34, i32 0, i32 44
  %36 = getelementptr inbounds nuw %"struct.duckdb_zstd::ZSTD_prefixDict_s", ptr %35, i32 0, i32 0
  store ptr %33, ptr %36, align 8, !tbaa !173
  %37 = load i64, ptr %8, align 8, !tbaa !3
  %38 = load ptr, ptr %6, align 8, !tbaa !13
  %39 = getelementptr inbounds nuw %"struct.duckdb_zstd::ZSTD_CCtx_s", ptr %38, i32 0, i32 44
  %40 = getelementptr inbounds nuw %"struct.duckdb_zstd::ZSTD_prefixDict_s", ptr %39, i32 0, i32 1
  store i64 %37, ptr %40, align 8, !tbaa !174
  %41 = load i32, ptr %9, align 4, !tbaa !91
  %42 = load ptr, ptr %6, align 8, !tbaa !13
  %43 = getelementptr inbounds nuw %"struct.duckdb_zstd::ZSTD_CCtx_s", ptr %42, i32 0, i32 44
  %44 = getelementptr inbounds nuw %"struct.duckdb_zstd::ZSTD_prefixDict_s", ptr %43, i32 0, i32 2
  store i32 %41, ptr %44, align 8, !tbaa !175
  br label %45

45:                                               ; preds = %32, %29, %25
  store i64 0, ptr %5, align 8
  br label %46

46:                                               ; preds = %45, %23
  %47 = load i64, ptr %5, align 8
  ret i64 %47
}

; Function Attrs: mustprogress uwtable
define noundef i64 @_ZN11duckdb_zstd19ZSTD_CCtx_refPrefixEPNS_11ZSTD_CCtx_sEPKvm(ptr noundef %0, ptr noundef %1, i64 noundef %2) #2 {
  %4 = alloca ptr, align 8
  %5 = alloca ptr, align 8
  %6 = alloca i64, align 8
  store ptr %0, ptr %4, align 8, !tbaa !13
  store ptr %1, ptr %5, align 8, !tbaa !8
  store i64 %2, ptr %6, align 8, !tbaa !3
  %7 = load ptr, ptr %4, align 8, !tbaa !13
  %8 = load ptr, ptr %5, align 8, !tbaa !8
  %9 = load i64, ptr %6, align 8, !tbaa !3
  %10 = call noundef i64 @_ZN11duckdb_zstd28ZSTD_CCtx_refPrefix_advancedEPNS_11ZSTD_CCtx_sEPKvmNS_22ZSTD_dictContentType_eE(ptr noundef %7, ptr noundef %8, i64 noundef %9, i32 noundef 1)
  ret i64 %10
}