; Function Attrs: mustprogress uwtable
define noundef range(i64 -60, 1) i64 @_ZN11duckdb_zstd19ZSTD_CCtx_refPrefixEPNS_11ZSTD_CCtx_sEPKvm(ptr noundef captures(none) %0, ptr noundef %1, i64 noundef %2) local_unnamed_addr #2 {
  %4 = getelementptr inbounds nuw i8, ptr %0, i64 3608
  %5 = load i32, ptr %4, align 8, !tbaa !99
  %.not.i = icmp eq i32 %5, 0
  br i1 %.not.i, label %6, label %_ZN11duckdb_zstd28ZSTD_CCtx_refPrefix_advancedEPNS_11ZSTD_CCtx_sEPKvmNS_22ZSTD_dictContentType_eE.exit

6:                                                ; preds = %3
  tail call fastcc void @_ZN11duckdb_zstdL18ZSTD_clearAllDictsEPNS_11ZSTD_CCtx_sE(ptr noundef nonnull %0)
  %7 = icmp ne ptr %1, null
  %8 = icmp ne i64 %2, 0
  %or.cond.i = and i1 %7, %8
  br i1 %or.cond.i, label %9, label %_ZN11duckdb_zstd28ZSTD_CCtx_refPrefix_advancedEPNS_11ZSTD_CCtx_sEPKvmNS_22ZSTD_dictContentType_eE.exit

9:                                                ; preds = %6
  %10 = getelementptr inbounds nuw i8, ptr %0, i64 3704
  store ptr %1, ptr %10, align 8, !tbaa !143
  %11 = getelementptr inbounds nuw i8, ptr %0, i64 3712
  store i64 %2, ptr %11, align 8, !tbaa !144
  %12 = getelementptr inbounds nuw i8, ptr %0, i64 3720
  store i32 1, ptr %12, align 8, !tbaa !145
  br label %_ZN11duckdb_zstd28ZSTD_CCtx_refPrefix_advancedEPNS_11ZSTD_CCtx_sEPKvmNS_22ZSTD_dictContentType_eE.exit

_ZN11duckdb_zstd28ZSTD_CCtx_refPrefix_advancedEPNS_11ZSTD_CCtx_sEPKvmNS_22ZSTD_dictContentType_eE.exit: ; preds = %3, %6, %9
  %.0.i = phi i64 [ -60, %3 ], [ 0, %9 ], [ 0, %6 ]
  ret i64 %.0.i
}